ARM GAS  /var/folders/fn/fb163f091hqctqn3mb9xb7qc0000gp/T//ccSKAtbw.s 			page 1


   1              		.cpu cortex-m4
   2              		.eabi_attribute 27, 1
   3              		.eabi_attribute 28, 1
   4              		.eabi_attribute 20, 1
   5              		.eabi_attribute 21, 1
   6              		.eabi_attribute 23, 3
   7              		.eabi_attribute 24, 1
   8              		.eabi_attribute 25, 1
   9              		.eabi_attribute 26, 1
  10              		.eabi_attribute 30, 1
  11              		.eabi_attribute 34, 1
  12              		.eabi_attribute 18, 4
  13              		.file	"main.c"
  14              		.text
  15              	.Ltext0:
  16              		.cfi_sections	.debug_frame
  17              		.section	.text.MX_GPIO_Init,"ax",%progbits
  18              		.align	1
  19              		.arch armv7e-m
  20              		.syntax unified
  21              		.thumb
  22              		.thumb_func
  23              		.fpu fpv4-sp-d16
  25              	MX_GPIO_Init:
  26              	.LFB134:
  27              		.file 1 "Src/main.c"
   1:Src/main.c    **** /* USER CODE BEGIN Header */
   2:Src/main.c    **** /**
   3:Src/main.c    ****  ******************************************************************************
   4:Src/main.c    ****  * @file           : main.c
   5:Src/main.c    ****  * @brief          : Main program body
   6:Src/main.c    ****  ******************************************************************************
   7:Src/main.c    ****  * @attention
   8:Src/main.c    ****  *
   9:Src/main.c    ****  * Copyright (c) 2024 STMicroelectronics.
  10:Src/main.c    ****  * All rights reserved.
  11:Src/main.c    ****  *
  12:Src/main.c    ****  * This software is licensed under terms that can be found in the LICENSE file
  13:Src/main.c    ****  * in the root directory of this software component.
  14:Src/main.c    ****  * If no LICENSE file comes with this software, it is provided AS-IS.
  15:Src/main.c    ****  *
  16:Src/main.c    ****  ******************************************************************************
  17:Src/main.c    ****  */
  18:Src/main.c    **** /* USER CODE END Header */
  19:Src/main.c    **** /* Includes ------------------------------------------------------------------*/
  20:Src/main.c    **** #include "main.h"
  21:Src/main.c    **** 
  22:Src/main.c    **** /* Private includes ----------------------------------------------------------*/
  23:Src/main.c    **** /* USER CODE BEGIN Includes */
  24:Src/main.c    **** 
  25:Src/main.c    **** /* USER CODE END Includes */
  26:Src/main.c    **** 
  27:Src/main.c    **** /* Private typedef -----------------------------------------------------------*/
  28:Src/main.c    **** /* USER CODE BEGIN PTD */
  29:Src/main.c    **** 
  30:Src/main.c    **** /* USER CODE END PTD */
  31:Src/main.c    **** 
ARM GAS  /var/folders/fn/fb163f091hqctqn3mb9xb7qc0000gp/T//ccSKAtbw.s 			page 2


  32:Src/main.c    **** /* Private define ------------------------------------------------------------*/
  33:Src/main.c    **** /* USER CODE BEGIN PD */
  34:Src/main.c    **** 
  35:Src/main.c    **** /* USER CODE END PD */
  36:Src/main.c    **** 
  37:Src/main.c    **** /* Private macro -------------------------------------------------------------*/
  38:Src/main.c    **** /* USER CODE BEGIN PM */
  39:Src/main.c    **** 
  40:Src/main.c    **** /* USER CODE END PM */
  41:Src/main.c    **** 
  42:Src/main.c    **** /* Private variables ---------------------------------------------------------*/
  43:Src/main.c    **** 
  44:Src/main.c    **** /* USER CODE BEGIN PV */
  45:Src/main.c    **** 
  46:Src/main.c    **** /* USER CODE END PV */
  47:Src/main.c    **** 
  48:Src/main.c    **** /* Private function prototypes -----------------------------------------------*/
  49:Src/main.c    **** void SystemClock_Config(void);
  50:Src/main.c    **** static void MX_GPIO_Init(void);
  51:Src/main.c    **** /* USER CODE BEGIN PFP */
  52:Src/main.c    **** 
  53:Src/main.c    **** /* USER CODE END PFP */
  54:Src/main.c    **** 
  55:Src/main.c    **** /* Private user code ---------------------------------------------------------*/
  56:Src/main.c    **** /* USER CODE BEGIN 0 */
  57:Src/main.c    **** 
  58:Src/main.c    **** /* USER CODE END 0 */
  59:Src/main.c    **** 
  60:Src/main.c    **** /**
  61:Src/main.c    ****  * @brief  The application entry point.
  62:Src/main.c    ****  * @retval int
  63:Src/main.c    ****  */
  64:Src/main.c    **** int main(void)
  65:Src/main.c    **** {
  66:Src/main.c    **** 
  67:Src/main.c    ****   /* USER CODE BEGIN 1 */
  68:Src/main.c    **** 
  69:Src/main.c    ****   /* USER CODE END 1 */
  70:Src/main.c    **** 
  71:Src/main.c    ****   /* MCU Configuration--------------------------------------------------------*/
  72:Src/main.c    **** 
  73:Src/main.c    ****   /* Reset of all peripherals, Initializes the Flash interface and the Systick. */
  74:Src/main.c    ****   HAL_Init();
  75:Src/main.c    **** 
  76:Src/main.c    ****   /* USER CODE BEGIN Init */
  77:Src/main.c    **** 
  78:Src/main.c    ****   /* USER CODE END Init */
  79:Src/main.c    **** 
  80:Src/main.c    ****   /* Configure the system clock */
  81:Src/main.c    ****   SystemClock_Config();
  82:Src/main.c    **** 
  83:Src/main.c    ****   /* USER CODE BEGIN SysInit */
  84:Src/main.c    **** 
  85:Src/main.c    ****   /* USER CODE END SysInit */
  86:Src/main.c    **** 
  87:Src/main.c    ****   /* Initialize all configured peripherals */
  88:Src/main.c    ****   MX_GPIO_Init();
ARM GAS  /var/folders/fn/fb163f091hqctqn3mb9xb7qc0000gp/T//ccSKAtbw.s 			page 3


  89:Src/main.c    ****   /* USER CODE BEGIN 2 */
  90:Src/main.c    **** 
  91:Src/main.c    ****   /* USER CODE END 2 */
  92:Src/main.c    **** 
  93:Src/main.c    ****   /* Infinite loop */
  94:Src/main.c    ****   /* USER CODE BEGIN WHILE */
  95:Src/main.c    ****   while (1)
  96:Src/main.c    ****   {
  97:Src/main.c    ****     /* USER CODE END WHILE */
  98:Src/main.c    **** 
  99:Src/main.c    ****     /* USER CODE BEGIN 3 */
 100:Src/main.c    ****   }
 101:Src/main.c    ****   /* USER CODE END 3 */
 102:Src/main.c    **** }
 103:Src/main.c    **** 
 104:Src/main.c    **** /**
 105:Src/main.c    ****  * @brief System Clock Configuration
 106:Src/main.c    ****  * @retval None
 107:Src/main.c    ****  */
 108:Src/main.c    **** void SystemClock_Config(void)
 109:Src/main.c    **** {
 110:Src/main.c    ****   RCC_OscInitTypeDef RCC_OscInitStruct = {0};
 111:Src/main.c    ****   RCC_ClkInitTypeDef RCC_ClkInitStruct = {0};
 112:Src/main.c    **** 
 113:Src/main.c    ****   /** Configure the main internal regulator output voltage
 114:Src/main.c    ****    */
 115:Src/main.c    ****   if (HAL_PWREx_ControlVoltageScaling(PWR_REGULATOR_VOLTAGE_SCALE1) != HAL_OK)
 116:Src/main.c    ****   {
 117:Src/main.c    ****     Error_Handler();
 118:Src/main.c    ****   }
 119:Src/main.c    **** 
 120:Src/main.c    ****   /** Initializes the RCC Oscillators according to the specified parameters
 121:Src/main.c    ****    * in the RCC_OscInitTypeDef structure.
 122:Src/main.c    ****    */
 123:Src/main.c    ****   RCC_OscInitStruct.OscillatorType = RCC_OSCILLATORTYPE_MSI;
 124:Src/main.c    ****   RCC_OscInitStruct.MSIState = RCC_MSI_ON;
 125:Src/main.c    ****   RCC_OscInitStruct.MSICalibrationValue = 0;
 126:Src/main.c    ****   RCC_OscInitStruct.MSIClockRange = RCC_MSIRANGE_6;
 127:Src/main.c    ****   RCC_OscInitStruct.PLL.PLLState = RCC_PLL_ON;
 128:Src/main.c    ****   RCC_OscInitStruct.PLL.PLLSource = RCC_PLLSOURCE_MSI;
 129:Src/main.c    ****   RCC_OscInitStruct.PLL.PLLM = 1;
 130:Src/main.c    ****   RCC_OscInitStruct.PLL.PLLN = 16;
 131:Src/main.c    ****   RCC_OscInitStruct.PLL.PLLP = RCC_PLLP_DIV7;
 132:Src/main.c    ****   RCC_OscInitStruct.PLL.PLLQ = RCC_PLLQ_DIV2;
 133:Src/main.c    ****   RCC_OscInitStruct.PLL.PLLR = RCC_PLLR_DIV2;
 134:Src/main.c    ****   if (HAL_RCC_OscConfig(&RCC_OscInitStruct) != HAL_OK)
 135:Src/main.c    ****   {
 136:Src/main.c    ****     Error_Handler();
 137:Src/main.c    ****   }
 138:Src/main.c    **** 
 139:Src/main.c    ****   /** Initializes the CPU, AHB and APB buses clocks
 140:Src/main.c    ****    */
 141:Src/main.c    ****   RCC_ClkInitStruct.ClockType = RCC_CLOCKTYPE_HCLK | RCC_CLOCKTYPE_SYSCLK | RCC_CLOCKTYPE_PCLK1 | R
 142:Src/main.c    ****   RCC_ClkInitStruct.SYSCLKSource = RCC_SYSCLKSOURCE_PLLCLK;
 143:Src/main.c    ****   RCC_ClkInitStruct.AHBCLKDivider = RCC_SYSCLK_DIV1;
 144:Src/main.c    ****   RCC_ClkInitStruct.APB1CLKDivider = RCC_HCLK_DIV1;
 145:Src/main.c    ****   RCC_ClkInitStruct.APB2CLKDivider = RCC_HCLK_DIV1;
ARM GAS  /var/folders/fn/fb163f091hqctqn3mb9xb7qc0000gp/T//ccSKAtbw.s 			page 4


 146:Src/main.c    **** 
 147:Src/main.c    ****   if (HAL_RCC_ClockConfig(&RCC_ClkInitStruct, FLASH_LATENCY_1) != HAL_OK)
 148:Src/main.c    ****   {
 149:Src/main.c    ****     Error_Handler();
 150:Src/main.c    ****   }
 151:Src/main.c    **** }
 152:Src/main.c    **** 
 153:Src/main.c    **** /**
 154:Src/main.c    ****  * @brief GPIO Initialization Function
 155:Src/main.c    ****  * @param None
 156:Src/main.c    ****  * @retval None
 157:Src/main.c    ****  */
 158:Src/main.c    **** static void MX_GPIO_Init(void)
 159:Src/main.c    **** {
  28              		.loc 1 159 1 view -0
  29              		.cfi_startproc
  30              		@ args = 0, pretend = 0, frame = 32
  31              		@ frame_needed = 0, uses_anonymous_args = 0
  32 0000 F0B5     		push	{r4, r5, r6, r7, lr}
  33              	.LCFI0:
  34              		.cfi_def_cfa_offset 20
  35              		.cfi_offset 4, -20
  36              		.cfi_offset 5, -16
  37              		.cfi_offset 6, -12
  38              		.cfi_offset 7, -8
  39              		.cfi_offset 14, -4
  40 0002 89B0     		sub	sp, sp, #36
  41              	.LCFI1:
  42              		.cfi_def_cfa_offset 56
 160:Src/main.c    ****   GPIO_InitTypeDef GPIO_InitStruct = {0};
  43              		.loc 1 160 3 view .LVU1
  44              		.loc 1 160 20 is_stmt 0 view .LVU2
  45 0004 0024     		movs	r4, #0
  46 0006 0394     		str	r4, [sp, #12]
  47 0008 0494     		str	r4, [sp, #16]
  48 000a 0594     		str	r4, [sp, #20]
  49 000c 0694     		str	r4, [sp, #24]
  50 000e 0794     		str	r4, [sp, #28]
 161:Src/main.c    ****   /* USER CODE BEGIN MX_GPIO_Init_1 */
 162:Src/main.c    ****   /* USER CODE END MX_GPIO_Init_1 */
 163:Src/main.c    **** 
 164:Src/main.c    ****   /* GPIO Ports Clock Enable */
 165:Src/main.c    ****   __HAL_RCC_GPIOC_CLK_ENABLE();
  51              		.loc 1 165 3 is_stmt 1 view .LVU3
  52              	.LBB4:
  53              		.loc 1 165 3 view .LVU4
  54              		.loc 1 165 3 view .LVU5
  55 0010 234B     		ldr	r3, .L3
  56 0012 DA6C     		ldr	r2, [r3, #76]
  57 0014 42F00402 		orr	r2, r2, #4
  58 0018 DA64     		str	r2, [r3, #76]
  59              		.loc 1 165 3 view .LVU6
  60 001a DA6C     		ldr	r2, [r3, #76]
  61 001c 02F00402 		and	r2, r2, #4
  62 0020 0092     		str	r2, [sp]
  63              		.loc 1 165 3 view .LVU7
  64 0022 009A     		ldr	r2, [sp]
ARM GAS  /var/folders/fn/fb163f091hqctqn3mb9xb7qc0000gp/T//ccSKAtbw.s 			page 5


  65              	.LBE4:
  66              		.loc 1 165 3 view .LVU8
 166:Src/main.c    ****   __HAL_RCC_GPIOA_CLK_ENABLE();
  67              		.loc 1 166 3 view .LVU9
  68              	.LBB5:
  69              		.loc 1 166 3 view .LVU10
  70              		.loc 1 166 3 view .LVU11
  71 0024 DA6C     		ldr	r2, [r3, #76]
  72 0026 42F00102 		orr	r2, r2, #1
  73 002a DA64     		str	r2, [r3, #76]
  74              		.loc 1 166 3 view .LVU12
  75 002c DA6C     		ldr	r2, [r3, #76]
  76 002e 02F00102 		and	r2, r2, #1
  77 0032 0192     		str	r2, [sp, #4]
  78              		.loc 1 166 3 view .LVU13
  79 0034 019A     		ldr	r2, [sp, #4]
  80              	.LBE5:
  81              		.loc 1 166 3 view .LVU14
 167:Src/main.c    ****   __HAL_RCC_GPIOB_CLK_ENABLE();
  82              		.loc 1 167 3 view .LVU15
  83              	.LBB6:
  84              		.loc 1 167 3 view .LVU16
  85              		.loc 1 167 3 view .LVU17
  86 0036 DA6C     		ldr	r2, [r3, #76]
  87 0038 42F00202 		orr	r2, r2, #2
  88 003c DA64     		str	r2, [r3, #76]
  89              		.loc 1 167 3 view .LVU18
  90 003e DB6C     		ldr	r3, [r3, #76]
  91 0040 03F00203 		and	r3, r3, #2
  92 0044 0293     		str	r3, [sp, #8]
  93              		.loc 1 167 3 view .LVU19
  94 0046 029B     		ldr	r3, [sp, #8]
  95              	.LBE6:
  96              		.loc 1 167 3 view .LVU20
 168:Src/main.c    **** 
 169:Src/main.c    ****   /*Configure GPIO pin Output Level */
 170:Src/main.c    ****   HAL_GPIO_WritePin(LD3_GPIO_Port, LD3_Pin, GPIO_PIN_RESET);
  97              		.loc 1 170 3 view .LVU21
  98 0048 164E     		ldr	r6, .L3+4
  99 004a 2246     		mov	r2, r4
 100 004c 0821     		movs	r1, #8
 101 004e 3046     		mov	r0, r6
 102 0050 FFF7FEFF 		bl	HAL_GPIO_WritePin
 103              	.LVL0:
 171:Src/main.c    **** 
 172:Src/main.c    ****   /*Configure GPIO pin : VCP_TX_Pin */
 173:Src/main.c    ****   GPIO_InitStruct.Pin = VCP_TX_Pin;
 104              		.loc 1 173 3 view .LVU22
 105              		.loc 1 173 23 is_stmt 0 view .LVU23
 106 0054 0423     		movs	r3, #4
 107 0056 0393     		str	r3, [sp, #12]
 174:Src/main.c    ****   GPIO_InitStruct.Mode = GPIO_MODE_AF_PP;
 108              		.loc 1 174 3 is_stmt 1 view .LVU24
 109              		.loc 1 174 24 is_stmt 0 view .LVU25
 110 0058 0227     		movs	r7, #2
 111 005a 0497     		str	r7, [sp, #16]
 175:Src/main.c    ****   GPIO_InitStruct.Pull = GPIO_NOPULL;
ARM GAS  /var/folders/fn/fb163f091hqctqn3mb9xb7qc0000gp/T//ccSKAtbw.s 			page 6


 112              		.loc 1 175 3 is_stmt 1 view .LVU26
 113              		.loc 1 175 24 is_stmt 0 view .LVU27
 114 005c 0594     		str	r4, [sp, #20]
 176:Src/main.c    ****   GPIO_InitStruct.Speed = GPIO_SPEED_FREQ_VERY_HIGH;
 115              		.loc 1 176 3 is_stmt 1 view .LVU28
 116              		.loc 1 176 25 is_stmt 0 view .LVU29
 117 005e 0325     		movs	r5, #3
 118 0060 0695     		str	r5, [sp, #24]
 177:Src/main.c    ****   GPIO_InitStruct.Alternate = GPIO_AF7_USART2;
 119              		.loc 1 177 3 is_stmt 1 view .LVU30
 120              		.loc 1 177 29 is_stmt 0 view .LVU31
 121 0062 0723     		movs	r3, #7
 122 0064 0793     		str	r3, [sp, #28]
 178:Src/main.c    ****   HAL_GPIO_Init(VCP_TX_GPIO_Port, &GPIO_InitStruct);
 123              		.loc 1 178 3 is_stmt 1 view .LVU32
 124 0066 03A9     		add	r1, sp, #12
 125 0068 4FF09040 		mov	r0, #1207959552
 126 006c FFF7FEFF 		bl	HAL_GPIO_Init
 127              	.LVL1:
 179:Src/main.c    **** 
 180:Src/main.c    ****   /*Configure GPIO pin : VCP_RX_Pin */
 181:Src/main.c    ****   GPIO_InitStruct.Pin = VCP_RX_Pin;
 128              		.loc 1 181 3 view .LVU33
 129              		.loc 1 181 23 is_stmt 0 view .LVU34
 130 0070 4FF40043 		mov	r3, #32768
 131 0074 0393     		str	r3, [sp, #12]
 182:Src/main.c    ****   GPIO_InitStruct.Mode = GPIO_MODE_AF_PP;
 132              		.loc 1 182 3 is_stmt 1 view .LVU35
 133              		.loc 1 182 24 is_stmt 0 view .LVU36
 134 0076 0497     		str	r7, [sp, #16]
 183:Src/main.c    ****   GPIO_InitStruct.Pull = GPIO_NOPULL;
 135              		.loc 1 183 3 is_stmt 1 view .LVU37
 136              		.loc 1 183 24 is_stmt 0 view .LVU38
 137 0078 0594     		str	r4, [sp, #20]
 184:Src/main.c    ****   GPIO_InitStruct.Speed = GPIO_SPEED_FREQ_VERY_HIGH;
 138              		.loc 1 184 3 is_stmt 1 view .LVU39
 139              		.loc 1 184 25 is_stmt 0 view .LVU40
 140 007a 0695     		str	r5, [sp, #24]
 185:Src/main.c    ****   GPIO_InitStruct.Alternate = GPIO_AF3_USART2;
 141              		.loc 1 185 3 is_stmt 1 view .LVU41
 142              		.loc 1 185 29 is_stmt 0 view .LVU42
 143 007c 0795     		str	r5, [sp, #28]
 186:Src/main.c    ****   HAL_GPIO_Init(VCP_RX_GPIO_Port, &GPIO_InitStruct);
 144              		.loc 1 186 3 is_stmt 1 view .LVU43
 145 007e 03A9     		add	r1, sp, #12
 146 0080 4FF09040 		mov	r0, #1207959552
 147 0084 FFF7FEFF 		bl	HAL_GPIO_Init
 148              	.LVL2:
 187:Src/main.c    **** 
 188:Src/main.c    ****   /*Configure GPIO pin : LD3_Pin */
 189:Src/main.c    ****   GPIO_InitStruct.Pin = LD3_Pin;
 149              		.loc 1 189 3 view .LVU44
 150              		.loc 1 189 23 is_stmt 0 view .LVU45
 151 0088 0823     		movs	r3, #8
 152 008a 0393     		str	r3, [sp, #12]
 190:Src/main.c    ****   GPIO_InitStruct.Mode = GPIO_MODE_OUTPUT_PP;
 153              		.loc 1 190 3 is_stmt 1 view .LVU46
ARM GAS  /var/folders/fn/fb163f091hqctqn3mb9xb7qc0000gp/T//ccSKAtbw.s 			page 7


 154              		.loc 1 190 24 is_stmt 0 view .LVU47
 155 008c 0123     		movs	r3, #1
 156 008e 0493     		str	r3, [sp, #16]
 191:Src/main.c    ****   GPIO_InitStruct.Pull = GPIO_NOPULL;
 157              		.loc 1 191 3 is_stmt 1 view .LVU48
 158              		.loc 1 191 24 is_stmt 0 view .LVU49
 159 0090 0594     		str	r4, [sp, #20]
 192:Src/main.c    ****   GPIO_InitStruct.Speed = GPIO_SPEED_FREQ_LOW;
 160              		.loc 1 192 3 is_stmt 1 view .LVU50
 161              		.loc 1 192 25 is_stmt 0 view .LVU51
 162 0092 0694     		str	r4, [sp, #24]
 193:Src/main.c    ****   HAL_GPIO_Init(LD3_GPIO_Port, &GPIO_InitStruct);
 163              		.loc 1 193 3 is_stmt 1 view .LVU52
 164 0094 03A9     		add	r1, sp, #12
 165 0096 3046     		mov	r0, r6
 166 0098 FFF7FEFF 		bl	HAL_GPIO_Init
 167              	.LVL3:
 194:Src/main.c    **** 
 195:Src/main.c    ****   /* USER CODE BEGIN MX_GPIO_Init_2 */
 196:Src/main.c    ****   /* USER CODE END MX_GPIO_Init_2 */
 197:Src/main.c    **** }
 168              		.loc 1 197 1 is_stmt 0 view .LVU53
 169 009c 09B0     		add	sp, sp, #36
 170              	.LCFI2:
 171              		.cfi_def_cfa_offset 20
 172              		@ sp needed
 173 009e F0BD     		pop	{r4, r5, r6, r7, pc}
 174              	.L4:
 175              		.align	2
 176              	.L3:
 177 00a0 00100240 		.word	1073876992
 178 00a4 00040048 		.word	1207960576
 179              		.cfi_endproc
 180              	.LFE134:
 182              		.section	.text.Error_Handler,"ax",%progbits
 183              		.align	1
 184              		.global	Error_Handler
 185              		.syntax unified
 186              		.thumb
 187              		.thumb_func
 188              		.fpu fpv4-sp-d16
 190              	Error_Handler:
 191              	.LFB135:
 198:Src/main.c    **** 
 199:Src/main.c    **** /* USER CODE BEGIN 4 */
 200:Src/main.c    **** 
 201:Src/main.c    **** /* USER CODE END 4 */
 202:Src/main.c    **** 
 203:Src/main.c    **** /**
 204:Src/main.c    ****  * @brief  This function is executed in case of error occurrence.
 205:Src/main.c    ****  * @retval None
 206:Src/main.c    ****  */
 207:Src/main.c    **** void Error_Handler(void)
 208:Src/main.c    **** {
 192              		.loc 1 208 1 is_stmt 1 view -0
 193              		.cfi_startproc
 194              		@ Volatile: function does not return.
ARM GAS  /var/folders/fn/fb163f091hqctqn3mb9xb7qc0000gp/T//ccSKAtbw.s 			page 8


 195              		@ args = 0, pretend = 0, frame = 0
 196              		@ frame_needed = 0, uses_anonymous_args = 0
 197              		@ link register save eliminated.
 209:Src/main.c    ****   /* USER CODE BEGIN Error_Handler_Debug */
 210:Src/main.c    ****   /* User can add his own implementation to report the HAL error return state */
 211:Src/main.c    ****   __disable_irq();
 198              		.loc 1 211 3 view .LVU55
 199              	.LBB7:
 200              	.LBI7:
 201              		.file 2 "Drivers/CMSIS/Include/cmsis_gcc.h"
   1:Drivers/CMSIS/Include/cmsis_gcc.h **** /**************************************************************************//**
   2:Drivers/CMSIS/Include/cmsis_gcc.h ****  * @file     cmsis_gcc.h
   3:Drivers/CMSIS/Include/cmsis_gcc.h ****  * @brief    CMSIS compiler GCC header file
   4:Drivers/CMSIS/Include/cmsis_gcc.h ****  * @version  V5.2.0
   5:Drivers/CMSIS/Include/cmsis_gcc.h ****  * @date     08. May 2019
   6:Drivers/CMSIS/Include/cmsis_gcc.h ****  ******************************************************************************/
   7:Drivers/CMSIS/Include/cmsis_gcc.h **** /*
   8:Drivers/CMSIS/Include/cmsis_gcc.h ****  * Copyright (c) 2009-2019 Arm Limited. All rights reserved.
   9:Drivers/CMSIS/Include/cmsis_gcc.h ****  *
  10:Drivers/CMSIS/Include/cmsis_gcc.h ****  * SPDX-License-Identifier: Apache-2.0
  11:Drivers/CMSIS/Include/cmsis_gcc.h ****  *
  12:Drivers/CMSIS/Include/cmsis_gcc.h ****  * Licensed under the Apache License, Version 2.0 (the License); you may
  13:Drivers/CMSIS/Include/cmsis_gcc.h ****  * not use this file except in compliance with the License.
  14:Drivers/CMSIS/Include/cmsis_gcc.h ****  * You may obtain a copy of the License at
  15:Drivers/CMSIS/Include/cmsis_gcc.h ****  *
  16:Drivers/CMSIS/Include/cmsis_gcc.h ****  * www.apache.org/licenses/LICENSE-2.0
  17:Drivers/CMSIS/Include/cmsis_gcc.h ****  *
  18:Drivers/CMSIS/Include/cmsis_gcc.h ****  * Unless required by applicable law or agreed to in writing, software
  19:Drivers/CMSIS/Include/cmsis_gcc.h ****  * distributed under the License is distributed on an AS IS BASIS, WITHOUT
  20:Drivers/CMSIS/Include/cmsis_gcc.h ****  * WARRANTIES OR CONDITIONS OF ANY KIND, either express or implied.
  21:Drivers/CMSIS/Include/cmsis_gcc.h ****  * See the License for the specific language governing permissions and
  22:Drivers/CMSIS/Include/cmsis_gcc.h ****  * limitations under the License.
  23:Drivers/CMSIS/Include/cmsis_gcc.h ****  */
  24:Drivers/CMSIS/Include/cmsis_gcc.h **** 
  25:Drivers/CMSIS/Include/cmsis_gcc.h **** #ifndef __CMSIS_GCC_H
  26:Drivers/CMSIS/Include/cmsis_gcc.h **** #define __CMSIS_GCC_H
  27:Drivers/CMSIS/Include/cmsis_gcc.h **** 
  28:Drivers/CMSIS/Include/cmsis_gcc.h **** /* ignore some GCC warnings */
  29:Drivers/CMSIS/Include/cmsis_gcc.h **** #pragma GCC diagnostic push
  30:Drivers/CMSIS/Include/cmsis_gcc.h **** #pragma GCC diagnostic ignored "-Wsign-conversion"
  31:Drivers/CMSIS/Include/cmsis_gcc.h **** #pragma GCC diagnostic ignored "-Wconversion"
  32:Drivers/CMSIS/Include/cmsis_gcc.h **** #pragma GCC diagnostic ignored "-Wunused-parameter"
  33:Drivers/CMSIS/Include/cmsis_gcc.h **** 
  34:Drivers/CMSIS/Include/cmsis_gcc.h **** /* Fallback for __has_builtin */
  35:Drivers/CMSIS/Include/cmsis_gcc.h **** #ifndef __has_builtin
  36:Drivers/CMSIS/Include/cmsis_gcc.h ****   #define __has_builtin(x) (0)
  37:Drivers/CMSIS/Include/cmsis_gcc.h **** #endif
  38:Drivers/CMSIS/Include/cmsis_gcc.h **** 
  39:Drivers/CMSIS/Include/cmsis_gcc.h **** /* CMSIS compiler specific defines */
  40:Drivers/CMSIS/Include/cmsis_gcc.h **** #ifndef   __ASM
  41:Drivers/CMSIS/Include/cmsis_gcc.h ****   #define __ASM                                  __asm
  42:Drivers/CMSIS/Include/cmsis_gcc.h **** #endif
  43:Drivers/CMSIS/Include/cmsis_gcc.h **** #ifndef   __INLINE
  44:Drivers/CMSIS/Include/cmsis_gcc.h ****   #define __INLINE                               inline
  45:Drivers/CMSIS/Include/cmsis_gcc.h **** #endif
  46:Drivers/CMSIS/Include/cmsis_gcc.h **** #ifndef   __STATIC_INLINE
  47:Drivers/CMSIS/Include/cmsis_gcc.h ****   #define __STATIC_INLINE                        static inline
ARM GAS  /var/folders/fn/fb163f091hqctqn3mb9xb7qc0000gp/T//ccSKAtbw.s 			page 9


  48:Drivers/CMSIS/Include/cmsis_gcc.h **** #endif
  49:Drivers/CMSIS/Include/cmsis_gcc.h **** #ifndef   __STATIC_FORCEINLINE                 
  50:Drivers/CMSIS/Include/cmsis_gcc.h ****   #define __STATIC_FORCEINLINE                   __attribute__((always_inline)) static inline
  51:Drivers/CMSIS/Include/cmsis_gcc.h **** #endif                                           
  52:Drivers/CMSIS/Include/cmsis_gcc.h **** #ifndef   __NO_RETURN
  53:Drivers/CMSIS/Include/cmsis_gcc.h ****   #define __NO_RETURN                            __attribute__((__noreturn__))
  54:Drivers/CMSIS/Include/cmsis_gcc.h **** #endif
  55:Drivers/CMSIS/Include/cmsis_gcc.h **** #ifndef   __USED
  56:Drivers/CMSIS/Include/cmsis_gcc.h ****   #define __USED                                 __attribute__((used))
  57:Drivers/CMSIS/Include/cmsis_gcc.h **** #endif
  58:Drivers/CMSIS/Include/cmsis_gcc.h **** #ifndef   __WEAK
  59:Drivers/CMSIS/Include/cmsis_gcc.h ****   #define __WEAK                                 __attribute__((weak))
  60:Drivers/CMSIS/Include/cmsis_gcc.h **** #endif
  61:Drivers/CMSIS/Include/cmsis_gcc.h **** #ifndef   __PACKED
  62:Drivers/CMSIS/Include/cmsis_gcc.h ****   #define __PACKED                               __attribute__((packed, aligned(1)))
  63:Drivers/CMSIS/Include/cmsis_gcc.h **** #endif
  64:Drivers/CMSIS/Include/cmsis_gcc.h **** #ifndef   __PACKED_STRUCT
  65:Drivers/CMSIS/Include/cmsis_gcc.h ****   #define __PACKED_STRUCT                        struct __attribute__((packed, aligned(1)))
  66:Drivers/CMSIS/Include/cmsis_gcc.h **** #endif
  67:Drivers/CMSIS/Include/cmsis_gcc.h **** #ifndef   __PACKED_UNION
  68:Drivers/CMSIS/Include/cmsis_gcc.h ****   #define __PACKED_UNION                         union __attribute__((packed, aligned(1)))
  69:Drivers/CMSIS/Include/cmsis_gcc.h **** #endif
  70:Drivers/CMSIS/Include/cmsis_gcc.h **** #ifndef   __UNALIGNED_UINT32        /* deprecated */
  71:Drivers/CMSIS/Include/cmsis_gcc.h ****   #pragma GCC diagnostic push
  72:Drivers/CMSIS/Include/cmsis_gcc.h ****   #pragma GCC diagnostic ignored "-Wpacked"
  73:Drivers/CMSIS/Include/cmsis_gcc.h ****   #pragma GCC diagnostic ignored "-Wattributes"
  74:Drivers/CMSIS/Include/cmsis_gcc.h ****   struct __attribute__((packed)) T_UINT32 { uint32_t v; };
  75:Drivers/CMSIS/Include/cmsis_gcc.h ****   #pragma GCC diagnostic pop
  76:Drivers/CMSIS/Include/cmsis_gcc.h ****   #define __UNALIGNED_UINT32(x)                  (((struct T_UINT32 *)(x))->v)
  77:Drivers/CMSIS/Include/cmsis_gcc.h **** #endif
  78:Drivers/CMSIS/Include/cmsis_gcc.h **** #ifndef   __UNALIGNED_UINT16_WRITE
  79:Drivers/CMSIS/Include/cmsis_gcc.h ****   #pragma GCC diagnostic push
  80:Drivers/CMSIS/Include/cmsis_gcc.h ****   #pragma GCC diagnostic ignored "-Wpacked"
  81:Drivers/CMSIS/Include/cmsis_gcc.h ****   #pragma GCC diagnostic ignored "-Wattributes"
  82:Drivers/CMSIS/Include/cmsis_gcc.h ****   __PACKED_STRUCT T_UINT16_WRITE { uint16_t v; };
  83:Drivers/CMSIS/Include/cmsis_gcc.h ****   #pragma GCC diagnostic pop
  84:Drivers/CMSIS/Include/cmsis_gcc.h ****   #define __UNALIGNED_UINT16_WRITE(addr, val)    (void)((((struct T_UINT16_WRITE *)(void *)(addr))-
  85:Drivers/CMSIS/Include/cmsis_gcc.h **** #endif
  86:Drivers/CMSIS/Include/cmsis_gcc.h **** #ifndef   __UNALIGNED_UINT16_READ
  87:Drivers/CMSIS/Include/cmsis_gcc.h ****   #pragma GCC diagnostic push
  88:Drivers/CMSIS/Include/cmsis_gcc.h ****   #pragma GCC diagnostic ignored "-Wpacked"
  89:Drivers/CMSIS/Include/cmsis_gcc.h ****   #pragma GCC diagnostic ignored "-Wattributes"
  90:Drivers/CMSIS/Include/cmsis_gcc.h ****   __PACKED_STRUCT T_UINT16_READ { uint16_t v; };
  91:Drivers/CMSIS/Include/cmsis_gcc.h ****   #pragma GCC diagnostic pop
  92:Drivers/CMSIS/Include/cmsis_gcc.h ****   #define __UNALIGNED_UINT16_READ(addr)          (((const struct T_UINT16_READ *)(const void *)(add
  93:Drivers/CMSIS/Include/cmsis_gcc.h **** #endif
  94:Drivers/CMSIS/Include/cmsis_gcc.h **** #ifndef   __UNALIGNED_UINT32_WRITE
  95:Drivers/CMSIS/Include/cmsis_gcc.h ****   #pragma GCC diagnostic push
  96:Drivers/CMSIS/Include/cmsis_gcc.h ****   #pragma GCC diagnostic ignored "-Wpacked"
  97:Drivers/CMSIS/Include/cmsis_gcc.h ****   #pragma GCC diagnostic ignored "-Wattributes"
  98:Drivers/CMSIS/Include/cmsis_gcc.h ****   __PACKED_STRUCT T_UINT32_WRITE { uint32_t v; };
  99:Drivers/CMSIS/Include/cmsis_gcc.h ****   #pragma GCC diagnostic pop
 100:Drivers/CMSIS/Include/cmsis_gcc.h ****   #define __UNALIGNED_UINT32_WRITE(addr, val)    (void)((((struct T_UINT32_WRITE *)(void *)(addr))-
 101:Drivers/CMSIS/Include/cmsis_gcc.h **** #endif
 102:Drivers/CMSIS/Include/cmsis_gcc.h **** #ifndef   __UNALIGNED_UINT32_READ
 103:Drivers/CMSIS/Include/cmsis_gcc.h ****   #pragma GCC diagnostic push
 104:Drivers/CMSIS/Include/cmsis_gcc.h ****   #pragma GCC diagnostic ignored "-Wpacked"
ARM GAS  /var/folders/fn/fb163f091hqctqn3mb9xb7qc0000gp/T//ccSKAtbw.s 			page 10


 105:Drivers/CMSIS/Include/cmsis_gcc.h ****   #pragma GCC diagnostic ignored "-Wattributes"
 106:Drivers/CMSIS/Include/cmsis_gcc.h ****   __PACKED_STRUCT T_UINT32_READ { uint32_t v; };
 107:Drivers/CMSIS/Include/cmsis_gcc.h ****   #pragma GCC diagnostic pop
 108:Drivers/CMSIS/Include/cmsis_gcc.h ****   #define __UNALIGNED_UINT32_READ(addr)          (((const struct T_UINT32_READ *)(const void *)(add
 109:Drivers/CMSIS/Include/cmsis_gcc.h **** #endif
 110:Drivers/CMSIS/Include/cmsis_gcc.h **** #ifndef   __ALIGNED
 111:Drivers/CMSIS/Include/cmsis_gcc.h ****   #define __ALIGNED(x)                           __attribute__((aligned(x)))
 112:Drivers/CMSIS/Include/cmsis_gcc.h **** #endif
 113:Drivers/CMSIS/Include/cmsis_gcc.h **** #ifndef   __RESTRICT
 114:Drivers/CMSIS/Include/cmsis_gcc.h ****   #define __RESTRICT                             __restrict
 115:Drivers/CMSIS/Include/cmsis_gcc.h **** #endif
 116:Drivers/CMSIS/Include/cmsis_gcc.h **** #ifndef   __COMPILER_BARRIER
 117:Drivers/CMSIS/Include/cmsis_gcc.h ****   #define __COMPILER_BARRIER()                   __ASM volatile("":::"memory")
 118:Drivers/CMSIS/Include/cmsis_gcc.h **** #endif
 119:Drivers/CMSIS/Include/cmsis_gcc.h **** 
 120:Drivers/CMSIS/Include/cmsis_gcc.h **** /* #########################  Startup and Lowlevel Init  ######################## */
 121:Drivers/CMSIS/Include/cmsis_gcc.h **** 
 122:Drivers/CMSIS/Include/cmsis_gcc.h **** #ifndef __PROGRAM_START
 123:Drivers/CMSIS/Include/cmsis_gcc.h **** 
 124:Drivers/CMSIS/Include/cmsis_gcc.h **** /**
 125:Drivers/CMSIS/Include/cmsis_gcc.h ****   \brief   Initializes data and bss sections
 126:Drivers/CMSIS/Include/cmsis_gcc.h ****   \details This default implementations initialized all data and additional bss
 127:Drivers/CMSIS/Include/cmsis_gcc.h ****            sections relying on .copy.table and .zero.table specified properly
 128:Drivers/CMSIS/Include/cmsis_gcc.h ****            in the used linker script.
 129:Drivers/CMSIS/Include/cmsis_gcc.h ****   
 130:Drivers/CMSIS/Include/cmsis_gcc.h ****  */
 131:Drivers/CMSIS/Include/cmsis_gcc.h **** __STATIC_FORCEINLINE __NO_RETURN void __cmsis_start(void)
 132:Drivers/CMSIS/Include/cmsis_gcc.h **** {
 133:Drivers/CMSIS/Include/cmsis_gcc.h ****   extern void _start(void) __NO_RETURN;
 134:Drivers/CMSIS/Include/cmsis_gcc.h ****   
 135:Drivers/CMSIS/Include/cmsis_gcc.h ****   typedef struct {
 136:Drivers/CMSIS/Include/cmsis_gcc.h ****     uint32_t const* src;
 137:Drivers/CMSIS/Include/cmsis_gcc.h ****     uint32_t* dest;
 138:Drivers/CMSIS/Include/cmsis_gcc.h ****     uint32_t  wlen;
 139:Drivers/CMSIS/Include/cmsis_gcc.h ****   } __copy_table_t;
 140:Drivers/CMSIS/Include/cmsis_gcc.h ****   
 141:Drivers/CMSIS/Include/cmsis_gcc.h ****   typedef struct {
 142:Drivers/CMSIS/Include/cmsis_gcc.h ****     uint32_t* dest;
 143:Drivers/CMSIS/Include/cmsis_gcc.h ****     uint32_t  wlen;
 144:Drivers/CMSIS/Include/cmsis_gcc.h ****   } __zero_table_t;
 145:Drivers/CMSIS/Include/cmsis_gcc.h ****   
 146:Drivers/CMSIS/Include/cmsis_gcc.h ****   extern const __copy_table_t __copy_table_start__;
 147:Drivers/CMSIS/Include/cmsis_gcc.h ****   extern const __copy_table_t __copy_table_end__;
 148:Drivers/CMSIS/Include/cmsis_gcc.h ****   extern const __zero_table_t __zero_table_start__;
 149:Drivers/CMSIS/Include/cmsis_gcc.h ****   extern const __zero_table_t __zero_table_end__;
 150:Drivers/CMSIS/Include/cmsis_gcc.h **** 
 151:Drivers/CMSIS/Include/cmsis_gcc.h ****   for (__copy_table_t const* pTable = &__copy_table_start__; pTable < &__copy_table_end__; ++pTable
 152:Drivers/CMSIS/Include/cmsis_gcc.h ****     for(uint32_t i=0u; i<pTable->wlen; ++i) {
 153:Drivers/CMSIS/Include/cmsis_gcc.h ****       pTable->dest[i] = pTable->src[i];
 154:Drivers/CMSIS/Include/cmsis_gcc.h ****     }
 155:Drivers/CMSIS/Include/cmsis_gcc.h ****   }
 156:Drivers/CMSIS/Include/cmsis_gcc.h ****  
 157:Drivers/CMSIS/Include/cmsis_gcc.h ****   for (__zero_table_t const* pTable = &__zero_table_start__; pTable < &__zero_table_end__; ++pTable
 158:Drivers/CMSIS/Include/cmsis_gcc.h ****     for(uint32_t i=0u; i<pTable->wlen; ++i) {
 159:Drivers/CMSIS/Include/cmsis_gcc.h ****       pTable->dest[i] = 0u;
 160:Drivers/CMSIS/Include/cmsis_gcc.h ****     }
 161:Drivers/CMSIS/Include/cmsis_gcc.h ****   }
ARM GAS  /var/folders/fn/fb163f091hqctqn3mb9xb7qc0000gp/T//ccSKAtbw.s 			page 11


 162:Drivers/CMSIS/Include/cmsis_gcc.h ****  
 163:Drivers/CMSIS/Include/cmsis_gcc.h ****   _start();
 164:Drivers/CMSIS/Include/cmsis_gcc.h **** }
 165:Drivers/CMSIS/Include/cmsis_gcc.h ****   
 166:Drivers/CMSIS/Include/cmsis_gcc.h **** #define __PROGRAM_START           __cmsis_start
 167:Drivers/CMSIS/Include/cmsis_gcc.h **** #endif
 168:Drivers/CMSIS/Include/cmsis_gcc.h **** 
 169:Drivers/CMSIS/Include/cmsis_gcc.h **** #ifndef __INITIAL_SP
 170:Drivers/CMSIS/Include/cmsis_gcc.h **** #define __INITIAL_SP              __StackTop
 171:Drivers/CMSIS/Include/cmsis_gcc.h **** #endif
 172:Drivers/CMSIS/Include/cmsis_gcc.h **** 
 173:Drivers/CMSIS/Include/cmsis_gcc.h **** #ifndef __STACK_LIMIT
 174:Drivers/CMSIS/Include/cmsis_gcc.h **** #define __STACK_LIMIT             __StackLimit
 175:Drivers/CMSIS/Include/cmsis_gcc.h **** #endif
 176:Drivers/CMSIS/Include/cmsis_gcc.h **** 
 177:Drivers/CMSIS/Include/cmsis_gcc.h **** #ifndef __VECTOR_TABLE
 178:Drivers/CMSIS/Include/cmsis_gcc.h **** #define __VECTOR_TABLE            __Vectors
 179:Drivers/CMSIS/Include/cmsis_gcc.h **** #endif
 180:Drivers/CMSIS/Include/cmsis_gcc.h **** 
 181:Drivers/CMSIS/Include/cmsis_gcc.h **** #ifndef __VECTOR_TABLE_ATTRIBUTE
 182:Drivers/CMSIS/Include/cmsis_gcc.h **** #define __VECTOR_TABLE_ATTRIBUTE  __attribute((used, section(".vectors")))
 183:Drivers/CMSIS/Include/cmsis_gcc.h **** #endif
 184:Drivers/CMSIS/Include/cmsis_gcc.h **** 
 185:Drivers/CMSIS/Include/cmsis_gcc.h **** /* ###########################  Core Function Access  ########################### */
 186:Drivers/CMSIS/Include/cmsis_gcc.h **** /** \ingroup  CMSIS_Core_FunctionInterface
 187:Drivers/CMSIS/Include/cmsis_gcc.h ****     \defgroup CMSIS_Core_RegAccFunctions CMSIS Core Register Access Functions
 188:Drivers/CMSIS/Include/cmsis_gcc.h ****   @{
 189:Drivers/CMSIS/Include/cmsis_gcc.h ****  */
 190:Drivers/CMSIS/Include/cmsis_gcc.h **** 
 191:Drivers/CMSIS/Include/cmsis_gcc.h **** /**
 192:Drivers/CMSIS/Include/cmsis_gcc.h ****   \brief   Enable IRQ Interrupts
 193:Drivers/CMSIS/Include/cmsis_gcc.h ****   \details Enables IRQ interrupts by clearing the I-bit in the CPSR.
 194:Drivers/CMSIS/Include/cmsis_gcc.h ****            Can only be executed in Privileged modes.
 195:Drivers/CMSIS/Include/cmsis_gcc.h ****  */
 196:Drivers/CMSIS/Include/cmsis_gcc.h **** __STATIC_FORCEINLINE void __enable_irq(void)
 197:Drivers/CMSIS/Include/cmsis_gcc.h **** {
 198:Drivers/CMSIS/Include/cmsis_gcc.h ****   __ASM volatile ("cpsie i" : : : "memory");
 199:Drivers/CMSIS/Include/cmsis_gcc.h **** }
 200:Drivers/CMSIS/Include/cmsis_gcc.h **** 
 201:Drivers/CMSIS/Include/cmsis_gcc.h **** 
 202:Drivers/CMSIS/Include/cmsis_gcc.h **** /**
 203:Drivers/CMSIS/Include/cmsis_gcc.h ****   \brief   Disable IRQ Interrupts
 204:Drivers/CMSIS/Include/cmsis_gcc.h ****   \details Disables IRQ interrupts by setting the I-bit in the CPSR.
 205:Drivers/CMSIS/Include/cmsis_gcc.h ****            Can only be executed in Privileged modes.
 206:Drivers/CMSIS/Include/cmsis_gcc.h ****  */
 207:Drivers/CMSIS/Include/cmsis_gcc.h **** __STATIC_FORCEINLINE void __disable_irq(void)
 202              		.loc 2 207 27 view .LVU56
 203              	.LBB8:
 208:Drivers/CMSIS/Include/cmsis_gcc.h **** {
 209:Drivers/CMSIS/Include/cmsis_gcc.h ****   __ASM volatile ("cpsid i" : : : "memory");
 204              		.loc 2 209 3 view .LVU57
 205              		.syntax unified
 206              	@ 209 "Drivers/CMSIS/Include/cmsis_gcc.h" 1
 207 0000 72B6     		cpsid i
 208              	@ 0 "" 2
 209              		.thumb
 210              		.syntax unified
ARM GAS  /var/folders/fn/fb163f091hqctqn3mb9xb7qc0000gp/T//ccSKAtbw.s 			page 12


 211              	.L6:
 212              	.LBE8:
 213              	.LBE7:
 212:Src/main.c    ****   while (1)
 214              		.loc 1 212 3 discriminator 1 view .LVU58
 213:Src/main.c    ****   {
 214:Src/main.c    ****   }
 215              		.loc 1 214 3 discriminator 1 view .LVU59
 212:Src/main.c    ****   while (1)
 216              		.loc 1 212 9 discriminator 1 view .LVU60
 217 0002 FEE7     		b	.L6
 218              		.cfi_endproc
 219              	.LFE135:
 221              		.section	.text.SystemClock_Config,"ax",%progbits
 222              		.align	1
 223              		.global	SystemClock_Config
 224              		.syntax unified
 225              		.thumb
 226              		.thumb_func
 227              		.fpu fpv4-sp-d16
 229              	SystemClock_Config:
 230              	.LFB133:
 109:Src/main.c    ****   RCC_OscInitTypeDef RCC_OscInitStruct = {0};
 231              		.loc 1 109 1 view -0
 232              		.cfi_startproc
 233              		@ args = 0, pretend = 0, frame = 88
 234              		@ frame_needed = 0, uses_anonymous_args = 0
 235 0000 00B5     		push	{lr}
 236              	.LCFI3:
 237              		.cfi_def_cfa_offset 4
 238              		.cfi_offset 14, -4
 239 0002 97B0     		sub	sp, sp, #92
 240              	.LCFI4:
 241              		.cfi_def_cfa_offset 96
 110:Src/main.c    ****   RCC_ClkInitTypeDef RCC_ClkInitStruct = {0};
 242              		.loc 1 110 3 view .LVU62
 110:Src/main.c    ****   RCC_ClkInitTypeDef RCC_ClkInitStruct = {0};
 243              		.loc 1 110 22 is_stmt 0 view .LVU63
 244 0004 4422     		movs	r2, #68
 245 0006 0021     		movs	r1, #0
 246 0008 05A8     		add	r0, sp, #20
 247 000a FFF7FEFF 		bl	memset
 248              	.LVL4:
 111:Src/main.c    **** 
 249              		.loc 1 111 3 is_stmt 1 view .LVU64
 111:Src/main.c    **** 
 250              		.loc 1 111 22 is_stmt 0 view .LVU65
 251 000e 0023     		movs	r3, #0
 252 0010 0093     		str	r3, [sp]
 253 0012 0193     		str	r3, [sp, #4]
 254 0014 0293     		str	r3, [sp, #8]
 255 0016 0393     		str	r3, [sp, #12]
 256 0018 0493     		str	r3, [sp, #16]
 115:Src/main.c    ****   {
 257              		.loc 1 115 3 is_stmt 1 view .LVU66
 115:Src/main.c    ****   {
 258              		.loc 1 115 7 is_stmt 0 view .LVU67
ARM GAS  /var/folders/fn/fb163f091hqctqn3mb9xb7qc0000gp/T//ccSKAtbw.s 			page 13


 259 001a 4FF40070 		mov	r0, #512
 260 001e FFF7FEFF 		bl	HAL_PWREx_ControlVoltageScaling
 261              	.LVL5:
 115:Src/main.c    ****   {
 262              		.loc 1 115 6 view .LVU68
 263 0022 20BB     		cbnz	r0, .L12
 123:Src/main.c    ****   RCC_OscInitStruct.MSIState = RCC_MSI_ON;
 264              		.loc 1 123 3 is_stmt 1 view .LVU69
 123:Src/main.c    ****   RCC_OscInitStruct.MSIState = RCC_MSI_ON;
 265              		.loc 1 123 36 is_stmt 0 view .LVU70
 266 0024 1021     		movs	r1, #16
 267 0026 0591     		str	r1, [sp, #20]
 124:Src/main.c    ****   RCC_OscInitStruct.MSICalibrationValue = 0;
 268              		.loc 1 124 3 is_stmt 1 view .LVU71
 124:Src/main.c    ****   RCC_OscInitStruct.MSICalibrationValue = 0;
 269              		.loc 1 124 30 is_stmt 0 view .LVU72
 270 0028 0122     		movs	r2, #1
 271 002a 0B92     		str	r2, [sp, #44]
 125:Src/main.c    ****   RCC_OscInitStruct.MSIClockRange = RCC_MSIRANGE_6;
 272              		.loc 1 125 3 is_stmt 1 view .LVU73
 125:Src/main.c    ****   RCC_OscInitStruct.MSIClockRange = RCC_MSIRANGE_6;
 273              		.loc 1 125 41 is_stmt 0 view .LVU74
 274 002c 0023     		movs	r3, #0
 275 002e 0C93     		str	r3, [sp, #48]
 126:Src/main.c    ****   RCC_OscInitStruct.PLL.PLLState = RCC_PLL_ON;
 276              		.loc 1 126 3 is_stmt 1 view .LVU75
 126:Src/main.c    ****   RCC_OscInitStruct.PLL.PLLState = RCC_PLL_ON;
 277              		.loc 1 126 35 is_stmt 0 view .LVU76
 278 0030 6023     		movs	r3, #96
 279 0032 0D93     		str	r3, [sp, #52]
 127:Src/main.c    ****   RCC_OscInitStruct.PLL.PLLSource = RCC_PLLSOURCE_MSI;
 280              		.loc 1 127 3 is_stmt 1 view .LVU77
 127:Src/main.c    ****   RCC_OscInitStruct.PLL.PLLSource = RCC_PLLSOURCE_MSI;
 281              		.loc 1 127 34 is_stmt 0 view .LVU78
 282 0034 0223     		movs	r3, #2
 283 0036 0F93     		str	r3, [sp, #60]
 128:Src/main.c    ****   RCC_OscInitStruct.PLL.PLLM = 1;
 284              		.loc 1 128 3 is_stmt 1 view .LVU79
 128:Src/main.c    ****   RCC_OscInitStruct.PLL.PLLM = 1;
 285              		.loc 1 128 35 is_stmt 0 view .LVU80
 286 0038 1092     		str	r2, [sp, #64]
 129:Src/main.c    ****   RCC_OscInitStruct.PLL.PLLN = 16;
 287              		.loc 1 129 3 is_stmt 1 view .LVU81
 129:Src/main.c    ****   RCC_OscInitStruct.PLL.PLLN = 16;
 288              		.loc 1 129 30 is_stmt 0 view .LVU82
 289 003a 1192     		str	r2, [sp, #68]
 130:Src/main.c    ****   RCC_OscInitStruct.PLL.PLLP = RCC_PLLP_DIV7;
 290              		.loc 1 130 3 is_stmt 1 view .LVU83
 130:Src/main.c    ****   RCC_OscInitStruct.PLL.PLLP = RCC_PLLP_DIV7;
 291              		.loc 1 130 30 is_stmt 0 view .LVU84
 292 003c 1291     		str	r1, [sp, #72]
 131:Src/main.c    ****   RCC_OscInitStruct.PLL.PLLQ = RCC_PLLQ_DIV2;
 293              		.loc 1 131 3 is_stmt 1 view .LVU85
 131:Src/main.c    ****   RCC_OscInitStruct.PLL.PLLQ = RCC_PLLQ_DIV2;
 294              		.loc 1 131 30 is_stmt 0 view .LVU86
 295 003e 0722     		movs	r2, #7
 296 0040 1392     		str	r2, [sp, #76]
ARM GAS  /var/folders/fn/fb163f091hqctqn3mb9xb7qc0000gp/T//ccSKAtbw.s 			page 14


 132:Src/main.c    ****   RCC_OscInitStruct.PLL.PLLR = RCC_PLLR_DIV2;
 297              		.loc 1 132 3 is_stmt 1 view .LVU87
 132:Src/main.c    ****   RCC_OscInitStruct.PLL.PLLR = RCC_PLLR_DIV2;
 298              		.loc 1 132 30 is_stmt 0 view .LVU88
 299 0042 1493     		str	r3, [sp, #80]
 133:Src/main.c    ****   if (HAL_RCC_OscConfig(&RCC_OscInitStruct) != HAL_OK)
 300              		.loc 1 133 3 is_stmt 1 view .LVU89
 133:Src/main.c    ****   if (HAL_RCC_OscConfig(&RCC_OscInitStruct) != HAL_OK)
 301              		.loc 1 133 30 is_stmt 0 view .LVU90
 302 0044 1593     		str	r3, [sp, #84]
 134:Src/main.c    ****   {
 303              		.loc 1 134 3 is_stmt 1 view .LVU91
 134:Src/main.c    ****   {
 304              		.loc 1 134 7 is_stmt 0 view .LVU92
 305 0046 05A8     		add	r0, sp, #20
 306 0048 FFF7FEFF 		bl	HAL_RCC_OscConfig
 307              	.LVL6:
 134:Src/main.c    ****   {
 308              		.loc 1 134 6 view .LVU93
 309 004c 88B9     		cbnz	r0, .L13
 141:Src/main.c    ****   RCC_ClkInitStruct.SYSCLKSource = RCC_SYSCLKSOURCE_PLLCLK;
 310              		.loc 1 141 3 is_stmt 1 view .LVU94
 141:Src/main.c    ****   RCC_ClkInitStruct.SYSCLKSource = RCC_SYSCLKSOURCE_PLLCLK;
 311              		.loc 1 141 31 is_stmt 0 view .LVU95
 312 004e 0F23     		movs	r3, #15
 313 0050 0093     		str	r3, [sp]
 142:Src/main.c    ****   RCC_ClkInitStruct.AHBCLKDivider = RCC_SYSCLK_DIV1;
 314              		.loc 1 142 3 is_stmt 1 view .LVU96
 142:Src/main.c    ****   RCC_ClkInitStruct.AHBCLKDivider = RCC_SYSCLK_DIV1;
 315              		.loc 1 142 34 is_stmt 0 view .LVU97
 316 0052 0323     		movs	r3, #3
 317 0054 0193     		str	r3, [sp, #4]
 143:Src/main.c    ****   RCC_ClkInitStruct.APB1CLKDivider = RCC_HCLK_DIV1;
 318              		.loc 1 143 3 is_stmt 1 view .LVU98
 143:Src/main.c    ****   RCC_ClkInitStruct.APB1CLKDivider = RCC_HCLK_DIV1;
 319              		.loc 1 143 35 is_stmt 0 view .LVU99
 320 0056 0023     		movs	r3, #0
 321 0058 0293     		str	r3, [sp, #8]
 144:Src/main.c    ****   RCC_ClkInitStruct.APB2CLKDivider = RCC_HCLK_DIV1;
 322              		.loc 1 144 3 is_stmt 1 view .LVU100
 144:Src/main.c    ****   RCC_ClkInitStruct.APB2CLKDivider = RCC_HCLK_DIV1;
 323              		.loc 1 144 36 is_stmt 0 view .LVU101
 324 005a 0393     		str	r3, [sp, #12]
 145:Src/main.c    **** 
 325              		.loc 1 145 3 is_stmt 1 view .LVU102
 145:Src/main.c    **** 
 326              		.loc 1 145 36 is_stmt 0 view .LVU103
 327 005c 0493     		str	r3, [sp, #16]
 147:Src/main.c    ****   {
 328              		.loc 1 147 3 is_stmt 1 view .LVU104
 147:Src/main.c    ****   {
 329              		.loc 1 147 7 is_stmt 0 view .LVU105
 330 005e 0121     		movs	r1, #1
 331 0060 6846     		mov	r0, sp
 332 0062 FFF7FEFF 		bl	HAL_RCC_ClockConfig
 333              	.LVL7:
 147:Src/main.c    ****   {
ARM GAS  /var/folders/fn/fb163f091hqctqn3mb9xb7qc0000gp/T//ccSKAtbw.s 			page 15


 334              		.loc 1 147 6 view .LVU106
 335 0066 30B9     		cbnz	r0, .L14
 151:Src/main.c    **** 
 336              		.loc 1 151 1 view .LVU107
 337 0068 17B0     		add	sp, sp, #92
 338              	.LCFI5:
 339              		.cfi_remember_state
 340              		.cfi_def_cfa_offset 4
 341              		@ sp needed
 342 006a 5DF804FB 		ldr	pc, [sp], #4
 343              	.L12:
 344              	.LCFI6:
 345              		.cfi_restore_state
 117:Src/main.c    ****   }
 346              		.loc 1 117 5 is_stmt 1 view .LVU108
 347 006e FFF7FEFF 		bl	Error_Handler
 348              	.LVL8:
 349              	.L13:
 136:Src/main.c    ****   }
 350              		.loc 1 136 5 view .LVU109
 351 0072 FFF7FEFF 		bl	Error_Handler
 352              	.LVL9:
 353              	.L14:
 149:Src/main.c    ****   }
 354              		.loc 1 149 5 view .LVU110
 355 0076 FFF7FEFF 		bl	Error_Handler
 356              	.LVL10:
 357              		.cfi_endproc
 358              	.LFE133:
 360              		.section	.text.main,"ax",%progbits
 361              		.align	1
 362              		.global	main
 363              		.syntax unified
 364              		.thumb
 365              		.thumb_func
 366              		.fpu fpv4-sp-d16
 368              	main:
 369              	.LFB132:
  65:Src/main.c    **** 
 370              		.loc 1 65 1 view -0
 371              		.cfi_startproc
 372              		@ Volatile: function does not return.
 373              		@ args = 0, pretend = 0, frame = 0
 374              		@ frame_needed = 0, uses_anonymous_args = 0
 375 0000 08B5     		push	{r3, lr}
 376              	.LCFI7:
 377              		.cfi_def_cfa_offset 8
 378              		.cfi_offset 3, -8
 379              		.cfi_offset 14, -4
  74:Src/main.c    **** 
 380              		.loc 1 74 3 view .LVU112
 381 0002 FFF7FEFF 		bl	HAL_Init
 382              	.LVL11:
  81:Src/main.c    **** 
 383              		.loc 1 81 3 view .LVU113
 384 0006 FFF7FEFF 		bl	SystemClock_Config
 385              	.LVL12:
ARM GAS  /var/folders/fn/fb163f091hqctqn3mb9xb7qc0000gp/T//ccSKAtbw.s 			page 16


  88:Src/main.c    ****   /* USER CODE BEGIN 2 */
 386              		.loc 1 88 3 view .LVU114
 387 000a FFF7FEFF 		bl	MX_GPIO_Init
 388              	.LVL13:
 389              	.L16:
  95:Src/main.c    ****   {
 390              		.loc 1 95 3 discriminator 1 view .LVU115
 100:Src/main.c    ****   /* USER CODE END 3 */
 391              		.loc 1 100 3 discriminator 1 view .LVU116
  95:Src/main.c    ****   {
 392              		.loc 1 95 9 discriminator 1 view .LVU117
 393 000e FEE7     		b	.L16
 394              		.cfi_endproc
 395              	.LFE132:
 397              		.text
 398              	.Letext0:
 399              		.file 3 "/Applications/ArmGNUToolchain/10.2/arm-none-eabi/include/machine/_default_types.h"
 400              		.file 4 "/Applications/ArmGNUToolchain/10.2/arm-none-eabi/include/sys/_stdint.h"
 401              		.file 5 "Drivers/CMSIS/Device/ST/STM32L4xx/Include/stm32l432xx.h"
 402              		.file 6 "Drivers/STM32L4xx_HAL_Driver/Inc/stm32l4xx_hal_rcc.h"
 403              		.file 7 "Drivers/STM32L4xx_HAL_Driver/Inc/stm32l4xx_hal_gpio.h"
 404              		.file 8 "Drivers/STM32L4xx_HAL_Driver/Inc/stm32l4xx_hal_def.h"
 405              		.file 9 "Drivers/STM32L4xx_HAL_Driver/Inc/stm32l4xx_hal_pwr_ex.h"
 406              		.file 10 "Drivers/STM32L4xx_HAL_Driver/Inc/stm32l4xx_hal.h"
 407              		.file 11 "<built-in>"
ARM GAS  /var/folders/fn/fb163f091hqctqn3mb9xb7qc0000gp/T//ccSKAtbw.s 			page 17

