ARM GAS  /var/folders/fn/fb163f091hqctqn3mb9xb7qc0000gp/T//cc5g0gOh.s 			page 1


   1              		.cpu cortex-m4
   2              		.eabi_attribute 27, 1
   3              		.eabi_attribute 28, 1
   4              		.eabi_attribute 20, 1
   5              		.eabi_attribute 21, 1
   6              		.eabi_attribute 23, 3
   7              		.eabi_attribute 24, 1
   8              		.eabi_attribute 25, 1
   9              		.eabi_attribute 26, 1
  10              		.eabi_attribute 30, 1
  11              		.eabi_attribute 34, 1
  12              		.eabi_attribute 18, 4
  13              		.file	"stm32l4xx_it.c"
  14              		.text
  15              	.Ltext0:
  16              		.cfi_sections	.debug_frame
  17              		.section	.text.NMI_Handler,"ax",%progbits
  18              		.align	1
  19              		.global	NMI_Handler
  20              		.arch armv7e-m
  21              		.syntax unified
  22              		.thumb
  23              		.thumb_func
  24              		.fpu fpv4-sp-d16
  26              	NMI_Handler:
  27              	.LFB132:
  28              		.file 1 "Src/stm32l4xx_it.c"
   1:Src/stm32l4xx_it.c **** /* USER CODE BEGIN Header */
   2:Src/stm32l4xx_it.c **** /**
   3:Src/stm32l4xx_it.c ****   ******************************************************************************
   4:Src/stm32l4xx_it.c ****   * @file    stm32l4xx_it.c
   5:Src/stm32l4xx_it.c ****   * @brief   Interrupt Service Routines.
   6:Src/stm32l4xx_it.c ****   ******************************************************************************
   7:Src/stm32l4xx_it.c ****   * @attention
   8:Src/stm32l4xx_it.c ****   *
   9:Src/stm32l4xx_it.c ****   * Copyright (c) 2024 STMicroelectronics.
  10:Src/stm32l4xx_it.c ****   * All rights reserved.
  11:Src/stm32l4xx_it.c ****   *
  12:Src/stm32l4xx_it.c ****   * This software is licensed under terms that can be found in the LICENSE file
  13:Src/stm32l4xx_it.c ****   * in the root directory of this software component.
  14:Src/stm32l4xx_it.c ****   * If no LICENSE file comes with this software, it is provided AS-IS.
  15:Src/stm32l4xx_it.c ****   *
  16:Src/stm32l4xx_it.c ****   ******************************************************************************
  17:Src/stm32l4xx_it.c ****   */
  18:Src/stm32l4xx_it.c **** /* USER CODE END Header */
  19:Src/stm32l4xx_it.c **** 
  20:Src/stm32l4xx_it.c **** /* Includes ------------------------------------------------------------------*/
  21:Src/stm32l4xx_it.c **** #include "main.h"
  22:Src/stm32l4xx_it.c **** #include "stm32l4xx_it.h"
  23:Src/stm32l4xx_it.c **** /* Private includes ----------------------------------------------------------*/
  24:Src/stm32l4xx_it.c **** /* USER CODE BEGIN Includes */
  25:Src/stm32l4xx_it.c **** /* USER CODE END Includes */
  26:Src/stm32l4xx_it.c **** 
  27:Src/stm32l4xx_it.c **** /* Private typedef -----------------------------------------------------------*/
  28:Src/stm32l4xx_it.c **** /* USER CODE BEGIN TD */
  29:Src/stm32l4xx_it.c **** 
  30:Src/stm32l4xx_it.c **** /* USER CODE END TD */
ARM GAS  /var/folders/fn/fb163f091hqctqn3mb9xb7qc0000gp/T//cc5g0gOh.s 			page 2


  31:Src/stm32l4xx_it.c **** 
  32:Src/stm32l4xx_it.c **** /* Private define ------------------------------------------------------------*/
  33:Src/stm32l4xx_it.c **** /* USER CODE BEGIN PD */
  34:Src/stm32l4xx_it.c **** 
  35:Src/stm32l4xx_it.c **** /* USER CODE END PD */
  36:Src/stm32l4xx_it.c **** 
  37:Src/stm32l4xx_it.c **** /* Private macro -------------------------------------------------------------*/
  38:Src/stm32l4xx_it.c **** /* USER CODE BEGIN PM */
  39:Src/stm32l4xx_it.c **** 
  40:Src/stm32l4xx_it.c **** /* USER CODE END PM */
  41:Src/stm32l4xx_it.c **** 
  42:Src/stm32l4xx_it.c **** /* Private variables ---------------------------------------------------------*/
  43:Src/stm32l4xx_it.c **** /* USER CODE BEGIN PV */
  44:Src/stm32l4xx_it.c **** 
  45:Src/stm32l4xx_it.c **** /* USER CODE END PV */
  46:Src/stm32l4xx_it.c **** 
  47:Src/stm32l4xx_it.c **** /* Private function prototypes -----------------------------------------------*/
  48:Src/stm32l4xx_it.c **** /* USER CODE BEGIN PFP */
  49:Src/stm32l4xx_it.c **** 
  50:Src/stm32l4xx_it.c **** /* USER CODE END PFP */
  51:Src/stm32l4xx_it.c **** 
  52:Src/stm32l4xx_it.c **** /* Private user code ---------------------------------------------------------*/
  53:Src/stm32l4xx_it.c **** /* USER CODE BEGIN 0 */
  54:Src/stm32l4xx_it.c **** 
  55:Src/stm32l4xx_it.c **** /* USER CODE END 0 */
  56:Src/stm32l4xx_it.c **** 
  57:Src/stm32l4xx_it.c **** /* External variables --------------------------------------------------------*/
  58:Src/stm32l4xx_it.c **** 
  59:Src/stm32l4xx_it.c **** /* USER CODE BEGIN EV */
  60:Src/stm32l4xx_it.c **** 
  61:Src/stm32l4xx_it.c **** /* USER CODE END EV */
  62:Src/stm32l4xx_it.c **** 
  63:Src/stm32l4xx_it.c **** /******************************************************************************/
  64:Src/stm32l4xx_it.c **** /*           Cortex-M4 Processor Interruption and Exception Handlers          */
  65:Src/stm32l4xx_it.c **** /******************************************************************************/
  66:Src/stm32l4xx_it.c **** /**
  67:Src/stm32l4xx_it.c ****   * @brief This function handles Non maskable interrupt.
  68:Src/stm32l4xx_it.c ****   */
  69:Src/stm32l4xx_it.c **** void NMI_Handler(void)
  70:Src/stm32l4xx_it.c **** {
  29              		.loc 1 70 1 view -0
  30              		.cfi_startproc
  31              		@ Volatile: function does not return.
  32              		@ args = 0, pretend = 0, frame = 0
  33              		@ frame_needed = 0, uses_anonymous_args = 0
  34              		@ link register save eliminated.
  35              	.L2:
  71:Src/stm32l4xx_it.c ****   /* USER CODE BEGIN NonMaskableInt_IRQn 0 */
  72:Src/stm32l4xx_it.c **** 
  73:Src/stm32l4xx_it.c ****   /* USER CODE END NonMaskableInt_IRQn 0 */
  74:Src/stm32l4xx_it.c ****   /* USER CODE BEGIN NonMaskableInt_IRQn 1 */
  75:Src/stm32l4xx_it.c ****    while (1)
  36              		.loc 1 75 4 discriminator 1 view .LVU1
  76:Src/stm32l4xx_it.c ****   {
  77:Src/stm32l4xx_it.c ****   }
  37              		.loc 1 77 3 discriminator 1 view .LVU2
  75:Src/stm32l4xx_it.c ****   {
ARM GAS  /var/folders/fn/fb163f091hqctqn3mb9xb7qc0000gp/T//cc5g0gOh.s 			page 3


  38              		.loc 1 75 10 discriminator 1 view .LVU3
  39 0000 FEE7     		b	.L2
  40              		.cfi_endproc
  41              	.LFE132:
  43              		.section	.text.HardFault_Handler,"ax",%progbits
  44              		.align	1
  45              		.global	HardFault_Handler
  46              		.syntax unified
  47              		.thumb
  48              		.thumb_func
  49              		.fpu fpv4-sp-d16
  51              	HardFault_Handler:
  52              	.LFB133:
  78:Src/stm32l4xx_it.c ****   /* USER CODE END NonMaskableInt_IRQn 1 */
  79:Src/stm32l4xx_it.c **** }
  80:Src/stm32l4xx_it.c **** 
  81:Src/stm32l4xx_it.c **** /**
  82:Src/stm32l4xx_it.c ****   * @brief This function handles Hard fault interrupt.
  83:Src/stm32l4xx_it.c ****   */
  84:Src/stm32l4xx_it.c **** void HardFault_Handler(void)
  85:Src/stm32l4xx_it.c **** {
  53              		.loc 1 85 1 view -0
  54              		.cfi_startproc
  55              		@ Volatile: function does not return.
  56              		@ args = 0, pretend = 0, frame = 0
  57              		@ frame_needed = 0, uses_anonymous_args = 0
  58              		@ link register save eliminated.
  59              	.L4:
  86:Src/stm32l4xx_it.c ****   /* USER CODE BEGIN HardFault_IRQn 0 */
  87:Src/stm32l4xx_it.c **** 
  88:Src/stm32l4xx_it.c ****   /* USER CODE END HardFault_IRQn 0 */
  89:Src/stm32l4xx_it.c ****   while (1)
  60              		.loc 1 89 3 discriminator 1 view .LVU5
  90:Src/stm32l4xx_it.c ****   {
  91:Src/stm32l4xx_it.c ****     /* USER CODE BEGIN W1_HardFault_IRQn 0 */
  92:Src/stm32l4xx_it.c ****     /* USER CODE END W1_HardFault_IRQn 0 */
  93:Src/stm32l4xx_it.c ****   }
  61              		.loc 1 93 3 discriminator 1 view .LVU6
  89:Src/stm32l4xx_it.c ****   {
  62              		.loc 1 89 9 discriminator 1 view .LVU7
  63 0000 FEE7     		b	.L4
  64              		.cfi_endproc
  65              	.LFE133:
  67              		.section	.text.MemManage_Handler,"ax",%progbits
  68              		.align	1
  69              		.global	MemManage_Handler
  70              		.syntax unified
  71              		.thumb
  72              		.thumb_func
  73              		.fpu fpv4-sp-d16
  75              	MemManage_Handler:
  76              	.LFB134:
  94:Src/stm32l4xx_it.c **** }
  95:Src/stm32l4xx_it.c **** 
  96:Src/stm32l4xx_it.c **** /**
  97:Src/stm32l4xx_it.c ****   * @brief This function handles Memory management fault.
  98:Src/stm32l4xx_it.c ****   */
ARM GAS  /var/folders/fn/fb163f091hqctqn3mb9xb7qc0000gp/T//cc5g0gOh.s 			page 4


  99:Src/stm32l4xx_it.c **** void MemManage_Handler(void)
 100:Src/stm32l4xx_it.c **** {
  77              		.loc 1 100 1 view -0
  78              		.cfi_startproc
  79              		@ Volatile: function does not return.
  80              		@ args = 0, pretend = 0, frame = 0
  81              		@ frame_needed = 0, uses_anonymous_args = 0
  82              		@ link register save eliminated.
  83              	.L6:
 101:Src/stm32l4xx_it.c ****   /* USER CODE BEGIN MemoryManagement_IRQn 0 */
 102:Src/stm32l4xx_it.c **** 
 103:Src/stm32l4xx_it.c ****   /* USER CODE END MemoryManagement_IRQn 0 */
 104:Src/stm32l4xx_it.c ****   while (1)
  84              		.loc 1 104 3 discriminator 1 view .LVU9
 105:Src/stm32l4xx_it.c ****   {
 106:Src/stm32l4xx_it.c ****     /* USER CODE BEGIN W1_MemoryManagement_IRQn 0 */
 107:Src/stm32l4xx_it.c ****     /* USER CODE END W1_MemoryManagement_IRQn 0 */
 108:Src/stm32l4xx_it.c ****   }
  85              		.loc 1 108 3 discriminator 1 view .LVU10
 104:Src/stm32l4xx_it.c ****   {
  86              		.loc 1 104 9 discriminator 1 view .LVU11
  87 0000 FEE7     		b	.L6
  88              		.cfi_endproc
  89              	.LFE134:
  91              		.section	.text.BusFault_Handler,"ax",%progbits
  92              		.align	1
  93              		.global	BusFault_Handler
  94              		.syntax unified
  95              		.thumb
  96              		.thumb_func
  97              		.fpu fpv4-sp-d16
  99              	BusFault_Handler:
 100              	.LFB135:
 109:Src/stm32l4xx_it.c **** }
 110:Src/stm32l4xx_it.c **** 
 111:Src/stm32l4xx_it.c **** /**
 112:Src/stm32l4xx_it.c ****   * @brief This function handles Prefetch fault, memory access fault.
 113:Src/stm32l4xx_it.c ****   */
 114:Src/stm32l4xx_it.c **** void BusFault_Handler(void)
 115:Src/stm32l4xx_it.c **** {
 101              		.loc 1 115 1 view -0
 102              		.cfi_startproc
 103              		@ Volatile: function does not return.
 104              		@ args = 0, pretend = 0, frame = 0
 105              		@ frame_needed = 0, uses_anonymous_args = 0
 106              		@ link register save eliminated.
 107              	.L8:
 116:Src/stm32l4xx_it.c ****   /* USER CODE BEGIN BusFault_IRQn 0 */
 117:Src/stm32l4xx_it.c **** 
 118:Src/stm32l4xx_it.c ****   /* USER CODE END BusFault_IRQn 0 */
 119:Src/stm32l4xx_it.c ****   while (1)
 108              		.loc 1 119 3 discriminator 1 view .LVU13
 120:Src/stm32l4xx_it.c ****   {
 121:Src/stm32l4xx_it.c ****     /* USER CODE BEGIN W1_BusFault_IRQn 0 */
 122:Src/stm32l4xx_it.c ****     /* USER CODE END W1_BusFault_IRQn 0 */
 123:Src/stm32l4xx_it.c ****   }
 109              		.loc 1 123 3 discriminator 1 view .LVU14
ARM GAS  /var/folders/fn/fb163f091hqctqn3mb9xb7qc0000gp/T//cc5g0gOh.s 			page 5


 119:Src/stm32l4xx_it.c ****   {
 110              		.loc 1 119 9 discriminator 1 view .LVU15
 111 0000 FEE7     		b	.L8
 112              		.cfi_endproc
 113              	.LFE135:
 115              		.section	.text.UsageFault_Handler,"ax",%progbits
 116              		.align	1
 117              		.global	UsageFault_Handler
 118              		.syntax unified
 119              		.thumb
 120              		.thumb_func
 121              		.fpu fpv4-sp-d16
 123              	UsageFault_Handler:
 124              	.LFB136:
 124:Src/stm32l4xx_it.c **** }
 125:Src/stm32l4xx_it.c **** 
 126:Src/stm32l4xx_it.c **** /**
 127:Src/stm32l4xx_it.c ****   * @brief This function handles Undefined instruction or illegal state.
 128:Src/stm32l4xx_it.c ****   */
 129:Src/stm32l4xx_it.c **** void UsageFault_Handler(void)
 130:Src/stm32l4xx_it.c **** {
 125              		.loc 1 130 1 view -0
 126              		.cfi_startproc
 127              		@ Volatile: function does not return.
 128              		@ args = 0, pretend = 0, frame = 0
 129              		@ frame_needed = 0, uses_anonymous_args = 0
 130              		@ link register save eliminated.
 131              	.L10:
 131:Src/stm32l4xx_it.c ****   /* USER CODE BEGIN UsageFault_IRQn 0 */
 132:Src/stm32l4xx_it.c **** 
 133:Src/stm32l4xx_it.c ****   /* USER CODE END UsageFault_IRQn 0 */
 134:Src/stm32l4xx_it.c ****   while (1)
 132              		.loc 1 134 3 discriminator 1 view .LVU17
 135:Src/stm32l4xx_it.c ****   {
 136:Src/stm32l4xx_it.c ****     /* USER CODE BEGIN W1_UsageFault_IRQn 0 */
 137:Src/stm32l4xx_it.c ****     /* USER CODE END W1_UsageFault_IRQn 0 */
 138:Src/stm32l4xx_it.c ****   }
 133              		.loc 1 138 3 discriminator 1 view .LVU18
 134:Src/stm32l4xx_it.c ****   {
 134              		.loc 1 134 9 discriminator 1 view .LVU19
 135 0000 FEE7     		b	.L10
 136              		.cfi_endproc
 137              	.LFE136:
 139              		.section	.text.SVC_Handler,"ax",%progbits
 140              		.align	1
 141              		.global	SVC_Handler
 142              		.syntax unified
 143              		.thumb
 144              		.thumb_func
 145              		.fpu fpv4-sp-d16
 147              	SVC_Handler:
 148              	.LFB137:
 139:Src/stm32l4xx_it.c **** }
 140:Src/stm32l4xx_it.c **** 
 141:Src/stm32l4xx_it.c **** /**
 142:Src/stm32l4xx_it.c ****   * @brief This function handles System service call via SWI instruction.
 143:Src/stm32l4xx_it.c ****   */
ARM GAS  /var/folders/fn/fb163f091hqctqn3mb9xb7qc0000gp/T//cc5g0gOh.s 			page 6


 144:Src/stm32l4xx_it.c **** void SVC_Handler(void)
 145:Src/stm32l4xx_it.c **** {
 149              		.loc 1 145 1 view -0
 150              		.cfi_startproc
 151              		@ args = 0, pretend = 0, frame = 0
 152              		@ frame_needed = 0, uses_anonymous_args = 0
 153              		@ link register save eliminated.
 146:Src/stm32l4xx_it.c ****   /* USER CODE BEGIN SVCall_IRQn 0 */
 147:Src/stm32l4xx_it.c **** 
 148:Src/stm32l4xx_it.c ****   /* USER CODE END SVCall_IRQn 0 */
 149:Src/stm32l4xx_it.c ****   /* USER CODE BEGIN SVCall_IRQn 1 */
 150:Src/stm32l4xx_it.c **** 
 151:Src/stm32l4xx_it.c ****   /* USER CODE END SVCall_IRQn 1 */
 152:Src/stm32l4xx_it.c **** }
 154              		.loc 1 152 1 view .LVU21
 155 0000 7047     		bx	lr
 156              		.cfi_endproc
 157              	.LFE137:
 159              		.section	.text.DebugMon_Handler,"ax",%progbits
 160              		.align	1
 161              		.global	DebugMon_Handler
 162              		.syntax unified
 163              		.thumb
 164              		.thumb_func
 165              		.fpu fpv4-sp-d16
 167              	DebugMon_Handler:
 168              	.LFB138:
 153:Src/stm32l4xx_it.c **** 
 154:Src/stm32l4xx_it.c **** /**
 155:Src/stm32l4xx_it.c ****   * @brief This function handles Debug monitor.
 156:Src/stm32l4xx_it.c ****   */
 157:Src/stm32l4xx_it.c **** void DebugMon_Handler(void)
 158:Src/stm32l4xx_it.c **** {
 169              		.loc 1 158 1 view -0
 170              		.cfi_startproc
 171              		@ args = 0, pretend = 0, frame = 0
 172              		@ frame_needed = 0, uses_anonymous_args = 0
 173              		@ link register save eliminated.
 159:Src/stm32l4xx_it.c ****   /* USER CODE BEGIN DebugMonitor_IRQn 0 */
 160:Src/stm32l4xx_it.c **** 
 161:Src/stm32l4xx_it.c ****   /* USER CODE END DebugMonitor_IRQn 0 */
 162:Src/stm32l4xx_it.c ****   /* USER CODE BEGIN DebugMonitor_IRQn 1 */
 163:Src/stm32l4xx_it.c **** 
 164:Src/stm32l4xx_it.c ****   /* USER CODE END DebugMonitor_IRQn 1 */
 165:Src/stm32l4xx_it.c **** }
 174              		.loc 1 165 1 view .LVU23
 175 0000 7047     		bx	lr
 176              		.cfi_endproc
 177              	.LFE138:
 179              		.section	.text.PendSV_Handler,"ax",%progbits
 180              		.align	1
 181              		.global	PendSV_Handler
 182              		.syntax unified
 183              		.thumb
 184              		.thumb_func
 185              		.fpu fpv4-sp-d16
 187              	PendSV_Handler:
ARM GAS  /var/folders/fn/fb163f091hqctqn3mb9xb7qc0000gp/T//cc5g0gOh.s 			page 7


 188              	.LFB139:
 166:Src/stm32l4xx_it.c **** 
 167:Src/stm32l4xx_it.c **** /**
 168:Src/stm32l4xx_it.c ****   * @brief This function handles Pendable request for system service.
 169:Src/stm32l4xx_it.c ****   */
 170:Src/stm32l4xx_it.c **** void PendSV_Handler(void)
 171:Src/stm32l4xx_it.c **** {
 189              		.loc 1 171 1 view -0
 190              		.cfi_startproc
 191              		@ args = 0, pretend = 0, frame = 0
 192              		@ frame_needed = 0, uses_anonymous_args = 0
 193              		@ link register save eliminated.
 172:Src/stm32l4xx_it.c ****   /* USER CODE BEGIN PendSV_IRQn 0 */
 173:Src/stm32l4xx_it.c **** 
 174:Src/stm32l4xx_it.c ****   /* USER CODE END PendSV_IRQn 0 */
 175:Src/stm32l4xx_it.c ****   /* USER CODE BEGIN PendSV_IRQn 1 */
 176:Src/stm32l4xx_it.c **** 
 177:Src/stm32l4xx_it.c ****   /* USER CODE END PendSV_IRQn 1 */
 178:Src/stm32l4xx_it.c **** }
 194              		.loc 1 178 1 view .LVU25
 195 0000 7047     		bx	lr
 196              		.cfi_endproc
 197              	.LFE139:
 199              		.section	.text.SysTick_Handler,"ax",%progbits
 200              		.align	1
 201              		.global	SysTick_Handler
 202              		.syntax unified
 203              		.thumb
 204              		.thumb_func
 205              		.fpu fpv4-sp-d16
 207              	SysTick_Handler:
 208              	.LFB140:
 179:Src/stm32l4xx_it.c **** 
 180:Src/stm32l4xx_it.c **** /**
 181:Src/stm32l4xx_it.c ****   * @brief This function handles System tick timer.
 182:Src/stm32l4xx_it.c ****   */
 183:Src/stm32l4xx_it.c **** void SysTick_Handler(void)
 184:Src/stm32l4xx_it.c **** {
 209              		.loc 1 184 1 view -0
 210              		.cfi_startproc
 211              		@ args = 0, pretend = 0, frame = 0
 212              		@ frame_needed = 0, uses_anonymous_args = 0
 213 0000 08B5     		push	{r3, lr}
 214              	.LCFI0:
 215              		.cfi_def_cfa_offset 8
 216              		.cfi_offset 3, -8
 217              		.cfi_offset 14, -4
 185:Src/stm32l4xx_it.c ****   /* USER CODE BEGIN SysTick_IRQn 0 */
 186:Src/stm32l4xx_it.c **** 
 187:Src/stm32l4xx_it.c ****   /* USER CODE END SysTick_IRQn 0 */
 188:Src/stm32l4xx_it.c ****   HAL_IncTick();
 218              		.loc 1 188 3 view .LVU27
 219 0002 FFF7FEFF 		bl	HAL_IncTick
 220              	.LVL0:
 189:Src/stm32l4xx_it.c ****   /* USER CODE BEGIN SysTick_IRQn 1 */
 190:Src/stm32l4xx_it.c **** 
 191:Src/stm32l4xx_it.c ****   /* USER CODE END SysTick_IRQn 1 */
ARM GAS  /var/folders/fn/fb163f091hqctqn3mb9xb7qc0000gp/T//cc5g0gOh.s 			page 8


 192:Src/stm32l4xx_it.c **** }
 221              		.loc 1 192 1 is_stmt 0 view .LVU28
 222 0006 08BD     		pop	{r3, pc}
 223              		.cfi_endproc
 224              	.LFE140:
 226              		.text
 227              	.Letext0:
 228              		.file 2 "Drivers/STM32L4xx_HAL_Driver/Inc/stm32l4xx_hal.h"
ARM GAS  /var/folders/fn/fb163f091hqctqn3mb9xb7qc0000gp/T//cc5g0gOh.s 			page 9

